target datalayout = "e-m:e-p270:32:32-p271:32:32-p272:64:64-i64:64-i128:128-f80:128-n8:16:32:64-S128"
target triple = "x86_64-pc-linux-gnu"

%struct.GCRef = type { i64 }
%struct.CType = type { i32, i32, i16, i16, %struct.GCRef }
%struct.CTState = type { ptr, i32, i32, ptr, ptr, ptr, %struct.CCallback, [128 x i16] }
%struct.CCallback = type { [8 x %union.FPRCBArg], [8 x i64], ptr, ptr, ptr, i32, i32, i32 }
%union.FPRCBArg = type { double }

; Function Attrs: alwaysinline nounwind uwtable
define internal i32 @ctype_check(ptr noundef %0, i32 noundef %1) #2 {
  %3 = alloca ptr, align 8
  %4 = alloca i32, align 4
  store ptr %0, ptr %3, align 8, !tbaa !49
  store i32 %1, ptr %4, align 4, !tbaa !31
  %5 = load i32, ptr %4, align 4, !tbaa !31
  ret i32 %5
}

; Function Attrs: alwaysinline nounwind uwtable
define internal ptr @ctype_get(ptr noundef %0, i32 noundef %1) #2 {
  %3 = alloca ptr, align 8
  %4 = alloca i32, align 4
  store ptr %0, ptr %3, align 8, !tbaa !49
  store i32 %1, ptr %4, align 4, !tbaa !31
  %5 = load ptr, ptr %3, align 8, !tbaa !49
  %6 = getelementptr inbounds nuw %struct.CTState, ptr %5, i32 0, i32 0
  %7 = load ptr, ptr %6, align 8, !tbaa !79
  %8 = load ptr, ptr %3, align 8, !tbaa !49
  %9 = load i32, ptr %4, align 4, !tbaa !31
  %10 = call i32 @ctype_check(ptr noundef %8, i32 noundef %9)
  %11 = zext i32 %10 to i64
  %12 = getelementptr inbounds nuw %struct.CType, ptr %7, i64 %11
  ret ptr %12
}

; Function Attrs: alwaysinline nounwind uwtable
define internal ptr @ctype_child(ptr noundef %0, ptr noundef %1) #2 {
  %3 = alloca ptr, align 8
  %4 = alloca ptr, align 8
  store ptr %0, ptr %3, align 8, !tbaa !49
  store ptr %1, ptr %4, align 8, !tbaa !53
  %5 = load ptr, ptr %3, align 8, !tbaa !49
  %6 = load ptr, ptr %4, align 8, !tbaa !53
  %7 = getelementptr inbounds nuw %struct.CType, ptr %6, i32 0, i32 0
  %8 = load i32, ptr %7, align 8, !tbaa !55
  %9 = and i32 %8, 65535
  %10 = call ptr @ctype_get(ptr noundef %5, i32 noundef %9)
  ret ptr %10
}

; Function Attrs: nounwind uwtable
define internal i32 @crec_ct2irt(ptr noundef %0, ptr noundef %1) #0 {
  %3 = alloca i32, align 4
  %4 = alloca ptr, align 8
  %5 = alloca ptr, align 8
  %6 = alloca i32, align 4
  %7 = alloca i32, align 4
  store ptr %0, ptr %4, align 8, !tbaa !49
  store ptr %1, ptr %5, align 8, !tbaa !53
  %8 = load ptr, ptr %5, align 8, !tbaa !53
  %9 = getelementptr inbounds nuw %struct.CType, ptr %8, i32 0, i32 0
  %10 = load i32, ptr %9, align 8, !tbaa !55
  %11 = lshr i32 %10, 28
  %12 = icmp eq i32 %11, 5
  br i1 %12, label %13, label %17

13:                                               ; preds = %2
  %14 = load ptr, ptr %4, align 8, !tbaa !49
  %15 = load ptr, ptr %5, align 8, !tbaa !53
  %16 = call ptr @ctype_child(ptr noundef %14, ptr noundef %15)
  store ptr %16, ptr %5, align 8, !tbaa !53
  br label %17

17:                                               ; preds = %13, %2
  %18 = load ptr, ptr %5, align 8, !tbaa !53
  %19 = getelementptr inbounds nuw %struct.CType, ptr %18, i32 0, i32 0
  %20 = load i32, ptr %19, align 8, !tbaa !55
  %21 = lshr i32 %20, 28
  %22 = icmp eq i32 %21, 0
  %23 = xor i1 %22, true
  %24 = xor i1 %23, true
  %25 = zext i1 %24 to i32
  %26 = sext i32 %25 to i64
  %27 = call i64 @llvm.expect.i64(i64 %26, i64 1)
  %28 = icmp ne i64 %27, 0
  br i1 %28, label %29, label %75

29:                                               ; preds = %17
  %30 = load ptr, ptr %5, align 8, !tbaa !53
  %31 = getelementptr inbounds nuw %struct.CType, ptr %30, i32 0, i32 0
  %32 = load i32, ptr %31, align 8, !tbaa !55
  %33 = and i32 %32, 67108864
  %34 = icmp ne i32 %33, 0
  br i1 %34, label %35, label %51

35:                                               ; preds = %29
  %36 = load ptr, ptr %5, align 8, !tbaa !53
  %37 = getelementptr inbounds nuw %struct.CType, ptr %36, i32 0, i32 1
  %38 = load i32, ptr %37, align 4, !tbaa !57
  %39 = zext i32 %38 to i64
  %40 = icmp eq i64 %39, 8
  br i1 %40, label %41, label %42

41:                                               ; preds = %35
  store i32 14, ptr %3, align 4
  br label %112

42:                                               ; preds = %35
  %43 = load ptr, ptr %5, align 8, !tbaa !53
  %44 = getelementptr inbounds nuw %struct.CType, ptr %43, i32 0, i32 1
  %45 = load i32, ptr %44, align 4, !tbaa !57
  %46 = zext i32 %45 to i64
  %47 = icmp eq i64 %46, 4
  br i1 %47, label %48, label %49

48:                                               ; preds = %42
  store i32 13, ptr %3, align 4
  br label %112

49:                                               ; preds = %42
  br label %50

50:                                               ; preds = %49
  br label %74

51:                                               ; preds = %29
  call void @llvm.lifetime.start.p0(i64 4, ptr %6) #7
  %52 = load ptr, ptr %5, align 8, !tbaa !53
  %53 = getelementptr inbounds nuw %struct.CType, ptr %52, i32 0, i32 1
  %54 = load i32, ptr %53, align 4, !tbaa !57
  %55 = call i32 @llvm.ctlz.i32(i32 %54, i1 true)
  %56 = xor i32 %55, 31
  store i32 %56, ptr %6, align 4, !tbaa !31
  %57 = load i32, ptr %6, align 4, !tbaa !31
  %58 = icmp ule i32 %57, 3
  br i1 %58, label %59, label %70

59:                                               ; preds = %51
  %60 = load i32, ptr %6, align 4, !tbaa !31
  %61 = mul i32 2, %60
  %62 = add i32 15, %61
  %63 = load ptr, ptr %5, align 8, !tbaa !53
  %64 = getelementptr inbounds nuw %struct.CType, ptr %63, i32 0, i32 0
  %65 = load i32, ptr %64, align 8, !tbaa !55
  %66 = and i32 %65, 8388608
  %67 = icmp ne i32 %66, 0
  %68 = select i1 %67, i32 1, i32 0
  %69 = add i32 %62, %68
  store i32 %69, ptr %3, align 4
  store i32 1, ptr %7, align 4
  br label %71

70:                                               ; preds = %51
  store i32 0, ptr %7, align 4
  br label %71

71:                                               ; preds = %70, %59
  call void @llvm.lifetime.end.p0(i64 4, ptr %6) #7
  %72 = load i32, ptr %7, align 4
  switch i32 %72, label %114 [
    i32 0, label %73
    i32 1, label %112
  ]

73:                                               ; preds = %71
  br label %74

74:                                               ; preds = %73, %50
  br label %111

75:                                               ; preds = %17
  %76 = load ptr, ptr %5, align 8, !tbaa !53
  %77 = getelementptr inbounds nuw %struct.CType, ptr %76, i32 0, i32 0
  %78 = load i32, ptr %77, align 8, !tbaa !55
  %79 = lshr i32 %78, 28
  %80 = icmp eq i32 %79, 2
  br i1 %80, label %81, label %87

81:                                               ; preds = %75
  %82 = load ptr, ptr %5, align 8, !tbaa !53
  %83 = getelementptr inbounds nuw %struct.CType, ptr %82, i32 0, i32 1
  %84 = load i32, ptr %83, align 4, !tbaa !57
  %85 = icmp eq i32 %84, 8
  %86 = select i1 %85, i32 9, i32 5
  store i32 %86, ptr %3, align 4
  br label %112

87:                                               ; preds = %75
  %88 = load ptr, ptr %5, align 8, !tbaa !53
  %89 = getelementptr inbounds nuw %struct.CType, ptr %88, i32 0, i32 0
  %90 = load i32, ptr %89, align 8, !tbaa !55
  %91 = and i32 %90, -201326592
  %92 = icmp eq i32 %91, 872415232
  br i1 %92, label %93, label %109

93:                                               ; preds = %87
  %94 = load ptr, ptr %5, align 8, !tbaa !53
  %95 = getelementptr inbounds nuw %struct.CType, ptr %94, i32 0, i32 1
  %96 = load i32, ptr %95, align 4, !tbaa !57
  %97 = zext i32 %96 to i64
  %98 = icmp eq i64 %97, 16
  br i1 %98, label %99, label %100

99:                                               ; preds = %93
  store i32 14, ptr %3, align 4
  br label %112

100:                                              ; preds = %93
  %101 = load ptr, ptr %5, align 8, !tbaa !53
  %102 = getelementptr inbounds nuw %struct.CType, ptr %101, i32 0, i32 1
  %103 = load i32, ptr %102, align 4, !tbaa !57
  %104 = zext i32 %103 to i64
  %105 = icmp eq i64 %104, 8
  br i1 %105, label %106, label %107

106:                                              ; preds = %100
  store i32 13, ptr %3, align 4
  br label %112

107:                                              ; preds = %100
  br label %108

108:                                              ; preds = %107
  br label %109

109:                                              ; preds = %108, %87
  br label %110

110:                                              ; preds = %109
  br label %111

111:                                              ; preds = %110, %74
  store i32 10, ptr %3, align 4
  br label %112

112:                                              ; preds = %111, %106, %99, %81, %71, %48, %41
  %113 = load i32, ptr %3, align 4
  ret i32 %113

114:                                              ; preds = %71
  unreachable
}