; Function Attrs: mustprogress nofree norecurse nosync nounwind willreturn memory(read, inaccessiblemem: none) uwtable
define internal fastcc range(i32 5, 23) i32 @crec_ct2irt(ptr noundef readonly captures(none) %0, ptr noundef readonly captures(none) %1) unnamed_addr #3 {
  %3 = load i32, ptr %1, align 8, !tbaa !53
  %.mask = and i32 %3, -268435456
  %4 = icmp eq i32 %.mask, 1342177280
  br i1 %4, label %5, label %10

5:                                                ; preds = %2
  %6 = and i32 %3, 65535
  %7 = load ptr, ptr %0, align 8, !tbaa !45
  %8 = zext nneg i32 %6 to i64
  %9 = getelementptr inbounds nuw %struct.CType, ptr %7, i64 %8
  %.pr = load i32, ptr %9, align 8, !tbaa !53
  br label %10

10:                                               ; preds = %5, %2
  %11 = phi i32 [ %.pr, %5 ], [ %3, %2 ]
  %.018 = phi ptr [ %9, %5 ], [ %1, %2 ]
  %12 = icmp ult i32 %11, 268435456
  br i1 %12, label %13, label %27, !prof !70

13:                                               ; preds = %10
  %14 = and i32 %11, 67108864
  %.not = icmp eq i32 %14, 0
  %15 = getelementptr inbounds nuw i8, ptr %.018, i64 4
  %16 = load i32, ptr %15, align 4, !tbaa !57
  br i1 %.not, label %18, label %17

17:                                               ; preds = %13
  %switch.selectcmp = icmp eq i32 %16, 4
  %switch.select = select i1 %switch.selectcmp, i32 13, i32 10
  %switch.selectcmp25 = icmp eq i32 %16, 8
  %switch.select26 = select i1 %switch.selectcmp25, i32 14, i32 %switch.select
  br label %.thread

18:                                               ; preds = %13
  %19 = tail call range(i32 0, 33) i32 @llvm.ctlz.i32(i32 %16, i1 true)
  %20 = xor i32 %19, 31
  %21 = icmp samesign ult i32 %20, 4
  br i1 %21, label %22, label %.thread

22:                                               ; preds = %18
  %23 = shl nuw nsw i32 %20, 1
  %24 = lshr i32 %11, 23
  %.lobit = and i32 %24, 1
  %25 = add nuw nsw i32 %.lobit, 15
  %26 = add nuw nsw i32 %25, %23
  br label %.thread

27:                                               ; preds = %10
  %.mask23 = and i32 %11, -268435456
  %28 = icmp eq i32 %.mask23, 536870912
  br i1 %28, label %29, label %34

29:                                               ; preds = %27
  %30 = getelementptr inbounds nuw i8, ptr %.018, i64 4
  %31 = load i32, ptr %30, align 4, !tbaa !57
  %32 = icmp eq i32 %31, 8
  %33 = select i1 %32, i32 9, i32 5
  br label %.thread

34:                                               ; preds = %27
  %35 = and i32 %11, -201326592
  %36 = icmp eq i32 %35, 872415232
  br i1 %36, label %37, label %.thread

37:                                               ; preds = %34
  %38 = getelementptr inbounds nuw i8, ptr %.018, i64 4
  %39 = load i32, ptr %38, align 4, !tbaa !57
  %switch.selectcmp27 = icmp eq i32 %39, 8
  %switch.select28 = select i1 %switch.selectcmp27, i32 13, i32 10
  %switch.selectcmp29 = icmp eq i32 %39, 16
  %switch.select30 = select i1 %switch.selectcmp29, i32 14, i32 %switch.select28
  br label %.thread

.thread:                                          ; preds = %18, %34, %22, %37, %17, %29
  %.017 = phi i32 [ %26, %22 ], [ %33, %29 ], [ %switch.select26, %17 ], [ %switch.select30, %37 ], [ 10, %34 ], [ 10, %18 ]
  ret i32 %.017
}